target datalayout = "e-m:e-p270:32:32-p271:32:32-p272:64:64-i64:64-i128:128-f80:128-n8:16:32:64-S128"
target triple = "x86_64-pc-linux-gnu"

%struct.ComplexMatrixN = type { i32, ptr, ptr }

@__func__.initComplexMatrixN = private unnamed_addr constant [19 x i8] c"initComplexMatrixN\00", align 1

; Function Attrs: nounwind uwtable
define void @initComplexMatrixN(ptr noundef byval(%struct.ComplexMatrixN) align 8 %0, ptr noundef %1, ptr noundef %2) #0 {
  %4 = alloca ptr, align 8
  %5 = alloca ptr, align 8
  %6 = alloca i32, align 4
  %7 = alloca i32, align 4
  %8 = alloca i32, align 4
  %9 = alloca i32, align 4
  store ptr %1, ptr %4, align 8, !tbaa !23
  store ptr %2, ptr %5, align 8, !tbaa !23
  %10 = getelementptr inbounds nuw %struct.ComplexMatrixN, ptr %0, i32 0, i32 0
  %11 = load i32, ptr %10, align 8, !tbaa !45
  %12 = shl i32 1, %11
  %13 = zext i32 %12 to i64
  %14 = getelementptr inbounds nuw %struct.ComplexMatrixN, ptr %0, i32 0, i32 0
  %15 = load i32, ptr %14, align 8, !tbaa !45
  %16 = shl i32 1, %15
  %17 = zext i32 %16 to i64
  call void @validateMatrixInit(ptr noundef byval(%struct.ComplexMatrixN) align 8 %0, ptr noundef @__func__.initComplexMatrixN)
  call void @llvm.lifetime.start.p0(i64 4, ptr %6) #7
  %18 = getelementptr inbounds nuw %struct.ComplexMatrixN, ptr %0, i32 0, i32 0
  %19 = load i32, ptr %18, align 8, !tbaa !45
  %20 = shl i32 1, %19
  store i32 %20, ptr %6, align 4, !tbaa !4
  call void @llvm.lifetime.start.p0(i64 4, ptr %7) #7
  store i32 0, ptr %7, align 4, !tbaa !4
  br label %21

21:                                               ; preds = %73, %3
  %22 = load i32, ptr %7, align 4, !tbaa !4
  %23 = load i32, ptr %6, align 4, !tbaa !4
  %24 = icmp slt i32 %22, %23
  br i1 %24, label %26, label %25

25:                                               ; preds = %21
  store i32 2, ptr %8, align 4
  call void @llvm.lifetime.end.p0(i64 4, ptr %7) #7
  br label %76

26:                                               ; preds = %21
  call void @llvm.lifetime.start.p0(i64 4, ptr %9) #7
  store i32 0, ptr %9, align 4, !tbaa !4
  br label %27

27:                                               ; preds = %69, %26
  %28 = load i32, ptr %9, align 4, !tbaa !4
  %29 = load i32, ptr %6, align 4, !tbaa !4
  %30 = icmp slt i32 %28, %29
  br i1 %30, label %32, label %31

31:                                               ; preds = %27
  store i32 5, ptr %8, align 4
  call void @llvm.lifetime.end.p0(i64 4, ptr %9) #7
  br label %72

32:                                               ; preds = %27
  %33 = load ptr, ptr %4, align 8, !tbaa !23
  %34 = load i32, ptr %7, align 4, !tbaa !4
  %35 = sext i32 %34 to i64
  %36 = mul nsw i64 %35, %13
  %37 = getelementptr inbounds double, ptr %33, i64 %36
  %38 = load i32, ptr %9, align 4, !tbaa !4
  %39 = sext i32 %38 to i64
  %40 = getelementptr inbounds double, ptr %37, i64 %39
  %41 = load double, ptr %40, align 8, !tbaa !25
  %42 = getelementptr inbounds nuw %struct.ComplexMatrixN, ptr %0, i32 0, i32 1
  %43 = load ptr, ptr %42, align 8, !tbaa !48
  %44 = load i32, ptr %7, align 4, !tbaa !4
  %45 = sext i32 %44 to i64
  %46 = getelementptr inbounds ptr, ptr %43, i64 %45
  %47 = load ptr, ptr %46, align 8, !tbaa !23
  %48 = load i32, ptr %9, align 4, !tbaa !4
  %49 = sext i32 %48 to i64
  %50 = getelementptr inbounds double, ptr %47, i64 %49
  store double %41, ptr %50, align 8, !tbaa !25
  %51 = load ptr, ptr %5, align 8, !tbaa !23
  %52 = load i32, ptr %7, align 4, !tbaa !4
  %53 = sext i32 %52 to i64
  %54 = mul nsw i64 %53, %17
  %55 = getelementptr inbounds double, ptr %51, i64 %54
  %56 = load i32, ptr %9, align 4, !tbaa !4
  %57 = sext i32 %56 to i64
  %58 = getelementptr inbounds double, ptr %55, i64 %57
  %59 = load double, ptr %58, align 8, !tbaa !25
  %60 = getelementptr inbounds nuw %struct.ComplexMatrixN, ptr %0, i32 0, i32 2
  %61 = load ptr, ptr %60, align 8, !tbaa !49
  %62 = load i32, ptr %7, align 4, !tbaa !4
  %63 = sext i32 %62 to i64
  %64 = getelementptr inbounds ptr, ptr %61, i64 %63
  %65 = load ptr, ptr %64, align 8, !tbaa !23
  %66 = load i32, ptr %9, align 4, !tbaa !4
  %67 = sext i32 %66 to i64
  %68 = getelementptr inbounds double, ptr %65, i64 %67
  store double %59, ptr %68, align 8, !tbaa !25
  br label %69

69:                                               ; preds = %32
  %70 = load i32, ptr %9, align 4, !tbaa !4
  %71 = add nsw i32 %70, 1
  store i32 %71, ptr %9, align 4, !tbaa !4
  br label %27

72:                                               ; preds = %31
  br label %73

73:                                               ; preds = %72
  %74 = load i32, ptr %7, align 4, !tbaa !4
  %75 = add nsw i32 %74, 1
  store i32 %75, ptr %7, align 4, !tbaa !4
  br label %21

76:                                               ; preds = %25
  call void @llvm.lifetime.end.p0(i64 4, ptr %6) #7
  ret void
}