; Function Attrs: nounwind uwtable
define void @initComplexMatrixN(ptr noundef readonly byval(%struct.ComplexMatrixN) align 8 captures(none) %0, ptr noundef readonly captures(none) %1, ptr noundef readonly captures(none) %2) local_unnamed_addr #0 {
  %4 = load i32, ptr %0, align 8, !tbaa !25
  tail call void @validateMatrixInit(ptr noundef nonnull byval(%struct.ComplexMatrixN) align 8 %0, ptr noundef nonnull @__func__.initComplexMatrixN) #17
  %.not = icmp eq i32 %4, 31
  br i1 %.not, label %._crit_edge19, label %.preheader.lr.ph

.preheader.lr.ph:                                 ; preds = %3
  %5 = shl nuw nsw i32 1, %4
  %6 = zext nneg i32 %4 to i64
  %7 = getelementptr inbounds nuw i8, ptr %0, i64 8
  %8 = load ptr, ptr %7, align 8
  %9 = getelementptr inbounds nuw i8, ptr %0, i64 16
  %10 = load ptr, ptr %9, align 8
  %wide.trip.count24 = zext nneg i32 %5 to i64
  br label %.preheader.us

.preheader.us:                                    ; preds = %._crit_edge.us, %.preheader.lr.ph
  %indvars.iv21 = phi i64 [ %indvars.iv.next22, %._crit_edge.us ], [ 0, %.preheader.lr.ph ]
  %11 = shl i64 %indvars.iv21, %6
  %12 = getelementptr inbounds double, ptr %1, i64 %11
  %13 = getelementptr inbounds nuw ptr, ptr %8, i64 %indvars.iv21
  %14 = load ptr, ptr %13, align 8, !tbaa !30
  %15 = getelementptr inbounds double, ptr %2, i64 %11
  %16 = getelementptr inbounds nuw ptr, ptr %10, i64 %indvars.iv21
  %17 = load ptr, ptr %16, align 8, !tbaa !30
  br label %18

18:                                               ; preds = %.preheader.us, %18
  %indvars.iv = phi i64 [ 0, %.preheader.us ], [ %indvars.iv.next, %18 ]
  %19 = getelementptr inbounds nuw double, ptr %12, i64 %indvars.iv
  %20 = load double, ptr %19, align 8, !tbaa !31
  %21 = getelementptr inbounds nuw double, ptr %14, i64 %indvars.iv
  store double %20, ptr %21, align 8, !tbaa !31
  %22 = getelementptr inbounds nuw double, ptr %15, i64 %indvars.iv
  %23 = load double, ptr %22, align 8, !tbaa !31
  %24 = getelementptr inbounds nuw double, ptr %17, i64 %indvars.iv
  store double %23, ptr %24, align 8, !tbaa !31
  %indvars.iv.next = add nuw nsw i64 %indvars.iv, 1
  %exitcond.not = icmp eq i64 %indvars.iv.next, %wide.trip.count24
  br i1 %exitcond.not, label %._crit_edge.us, label %18

._crit_edge.us:                                   ; preds = %18
  %indvars.iv.next22 = add nuw nsw i64 %indvars.iv21, 1
  %exitcond25.not = icmp eq i64 %indvars.iv.next22, %wide.trip.count24
  br i1 %exitcond25.not, label %._crit_edge19, label %.preheader.us

._crit_edge19:                                    ; preds = %._crit_edge.us, %3
  ret void
}